target datalayout = "e-m:e-p270:32:32-p271:32:32-p272:64:64-i64:64-i128:128-f80:128-n8:16:32:64-S128"
target triple = "x86_64-pc-linux-gnu"

%struct.Qureg = type { i32, i32, i32, i64, i64, i32, i32, %struct.ComplexArray, %struct.ComplexArray, %struct.ComplexArray, ptr, ptr, ptr, ptr, ptr, ptr }
%struct.ComplexArray = type { ptr, ptr }

; Function Attrs: nounwind uwtable
define void @QuESTAssert(i32 noundef %0, i32 noundef %1, ptr noundef %2) #0 {
  %4 = alloca i32, align 4
  %5 = alloca i32, align 4
  %6 = alloca ptr, align 8
  store i32 %0, ptr %4, align 4, !tbaa !9
  store i32 %1, ptr %5, align 4, !tbaa !9
  store ptr %2, ptr %6, align 8, !tbaa !4
  %7 = load i32, ptr %4, align 4, !tbaa !9
  %8 = icmp ne i32 %7, 0
  br i1 %8, label %15, label %9

9:                                                ; preds = %3
  %10 = load i32, ptr %5, align 4, !tbaa !9
  %11 = zext i32 %10 to i64
  %12 = getelementptr inbounds nuw [92 x ptr], ptr @errorMessages, i64 0, i64 %11
  %13 = load ptr, ptr %12, align 8, !tbaa !4
  %14 = load ptr, ptr %6, align 8, !tbaa !4
  call void @invalidQuESTInputError(ptr noundef %13, ptr noundef %14)
  br label %15

15:                                               ; preds = %9, %3
  ret void
}

; Function Attrs: nounwind uwtable
define void @validateAmpIndex(ptr noundef byval(%struct.Qureg) align 8 %0, i64 noundef %1, ptr noundef %2) #0 {
  %4 = alloca i64, align 8
  %5 = alloca ptr, align 8
  %6 = alloca i64, align 8
  store i64 %1, ptr %4, align 8, !tbaa !32
  store ptr %2, ptr %5, align 8, !tbaa !4
  call void @llvm.lifetime.start.p0(i64 8, ptr %6) #7
  %7 = getelementptr inbounds nuw %struct.Qureg, ptr %0, i32 0, i32 1
  %8 = load i32, ptr %7, align 4, !tbaa !40
  %9 = zext i32 %8 to i64
  %10 = shl i64 1, %9
  store i64 %10, ptr %6, align 8, !tbaa !32
  %11 = load i64, ptr %4, align 8, !tbaa !32
  %12 = icmp sge i64 %11, 0
  br i1 %12, label %13, label %17

13:                                               ; preds = %3
  %14 = load i64, ptr %4, align 8, !tbaa !32
  %15 = load i64, ptr %6, align 8, !tbaa !32
  %16 = icmp slt i64 %14, %15
  br label %17

17:                                               ; preds = %13, %3
  %18 = phi i1 [ false, %3 ], [ %16, %13 ]
  %19 = zext i1 %18 to i32
  %20 = load ptr, ptr %5, align 8, !tbaa !4
  call void @QuESTAssert(i32 noundef %19, i32 noundef 7, ptr noundef %20)
  call void @llvm.lifetime.end.p0(i64 8, ptr %6) #7
  ret void
}

; Function Attrs: nounwind uwtable
define void @validateNumDensityAmps(ptr noundef byval(%struct.Qureg) align 8 %0, i64 noundef %1, i64 noundef %2, i64 noundef %3, ptr noundef %4) #0 {
  %6 = alloca i64, align 8
  %7 = alloca i64, align 8
  %8 = alloca i64, align 8
  %9 = alloca ptr, align 8
  %10 = alloca i64, align 8
  store i64 %1, ptr %6, align 8, !tbaa !32
  store i64 %2, ptr %7, align 8, !tbaa !32
  store i64 %3, ptr %8, align 8, !tbaa !32
  store ptr %4, ptr %9, align 8, !tbaa !4
  %11 = load i64, ptr %6, align 8, !tbaa !32
  %12 = load ptr, ptr %9, align 8, !tbaa !4
  call void @validateAmpIndex(ptr noundef byval(%struct.Qureg) align 8 %0, i64 noundef %11, ptr noundef %12)
  %13 = load i64, ptr %7, align 8, !tbaa !32
  %14 = load ptr, ptr %9, align 8, !tbaa !4
  call void @validateAmpIndex(ptr noundef byval(%struct.Qureg) align 8 %0, i64 noundef %13, ptr noundef %14)
  %15 = load i64, ptr %8, align 8, !tbaa !32
  %16 = icmp sge i64 %15, 0
  br i1 %16, label %17, label %22

17:                                               ; preds = %5
  %18 = load i64, ptr %8, align 8, !tbaa !32
  %19 = getelementptr inbounds nuw %struct.Qureg, ptr %0, i32 0, i32 4
  %20 = load i64, ptr %19, align 8, !tbaa !43
  %21 = icmp sle i64 %18, %20
  br label %22

22:                                               ; preds = %17, %5
  %23 = phi i1 [ false, %5 ], [ %21, %17 ]
  %24 = zext i1 %23 to i32
  %25 = load ptr, ptr %9, align 8, !tbaa !4
  call void @QuESTAssert(i32 noundef %24, i32 noundef 9, ptr noundef %25)
  call void @llvm.lifetime.start.p0(i64 8, ptr %10) #7
  %26 = load i64, ptr %6, align 8, !tbaa !32
  %27 = load i64, ptr %7, align 8, !tbaa !32
  %28 = getelementptr inbounds nuw %struct.Qureg, ptr %0, i32 0, i32 1
  %29 = load i32, ptr %28, align 4, !tbaa !40
  %30 = shl i32 1, %29
  %31 = sext i32 %30 to i64
  %32 = mul nsw i64 %27, %31
  %33 = add nsw i64 %26, %32
  store i64 %33, ptr %10, align 8, !tbaa !32
  %34 = load i64, ptr %8, align 8, !tbaa !32
  %35 = load i64, ptr %10, align 8, !tbaa !32
  %36 = add nsw i64 %34, %35
  %37 = getelementptr inbounds nuw %struct.Qureg, ptr %0, i32 0, i32 4
  %38 = load i64, ptr %37, align 8, !tbaa !43
  %39 = icmp sle i64 %36, %38
  %40 = zext i1 %39 to i32
  %41 = load ptr, ptr %9, align 8, !tbaa !4
  call void @QuESTAssert(i32 noundef %40, i32 noundef 11, ptr noundef %41)
  call void @llvm.lifetime.end.p0(i64 8, ptr %10) #7
  ret void
}