; Function Attrs: nounwind uwtable
define void @validateNumDensityAmps(ptr noundef readonly byval(%struct.Qureg) align 8 captures(none) %0, i64 noundef %1, i64 noundef %2, i64 noundef %3, ptr noundef %4) local_unnamed_addr #3 {
  %.sroa.3.0..sroa_idx = getelementptr inbounds nuw i8, ptr %0, i64 4
  %.sroa.3.0.copyload = load i32, ptr %.sroa.3.0..sroa_idx, align 4
  %6 = zext nneg i32 %.sroa.3.0.copyload to i64
  %7 = shl nuw i64 1, %6
  %8 = icmp slt i64 %1, 0
  %9 = icmp sge i64 %1, %7
  %.not4.i = select i1 %8, i1 true, i1 %9
  br i1 %.not4.i, label %10, label %validateAmpIndex.exit

10:                                               ; preds = %5
  tail call void @invalidQuESTInputError(ptr noundef nonnull @.str.9, ptr noundef %4)
  br label %validateAmpIndex.exit

validateAmpIndex.exit:                            ; preds = %5, %10
  %11 = icmp slt i64 %2, 0
  %12 = icmp sge i64 %2, %7
  %.not4.i11 = select i1 %11, i1 true, i1 %12
  br i1 %.not4.i11, label %13, label %validateAmpIndex.exit12

13:                                               ; preds = %validateAmpIndex.exit
  tail call void @invalidQuESTInputError(ptr noundef nonnull @.str.9, ptr noundef %4)
  br label %validateAmpIndex.exit12

validateAmpIndex.exit12:                          ; preds = %validateAmpIndex.exit, %13
  %14 = icmp slt i64 %3, 0
  %15 = getelementptr inbounds nuw i8, ptr %0, i64 24
  %16 = load i64, ptr %15, align 8
  %17 = icmp sgt i64 %3, %16
  %.not19 = select i1 %14, i1 true, i1 %17
  br i1 %.not19, label %18, label %QuESTAssert.exit

18:                                               ; preds = %validateAmpIndex.exit12
  tail call void @invalidQuESTInputError(ptr noundef nonnull @.str.11, ptr noundef %4)
  br label %QuESTAssert.exit

QuESTAssert.exit:                                 ; preds = %validateAmpIndex.exit12, %18
  %19 = shl nuw i32 1, %.sroa.3.0.copyload
  %20 = sext i32 %19 to i64
  %21 = mul nsw i64 %2, %20
  %22 = add i64 %3, %1
  %23 = add i64 %22, %21
  %.not = icmp sgt i64 %23, %16
  br i1 %.not, label %24, label %QuESTAssert.exit14

24:                                               ; preds = %QuESTAssert.exit
  tail call void @invalidQuESTInputError(ptr noundef nonnull @.str.13, ptr noundef %4)
  br label %QuESTAssert.exit14

QuESTAssert.exit14:                               ; preds = %QuESTAssert.exit, %24
  ret void
}